; ModuleID = '60/1629.c'
source_filename = "60/1629.c"
target datalayout = "e-m:e-p270:32:32-p271:32:32-p272:64:64-i64:64-f80:128-n8:16:32:64-S128"
target triple = "x86_64-pc-linux-gnu"

@.str = private unnamed_addr constant [3 x i8] c"%d\00", align 1
@.str.1 = private unnamed_addr constant [7 x i8] c"%d %d\0A\00", align 1
@.str.2 = private unnamed_addr constant [6 x i8] c"empty\00", align 1

; Function Attrs: noinline nounwind uwtable
define dso_local i32 @main() #0 {
  %1 = alloca i32, align 4
  %2 = alloca i32, align 4
  %3 = alloca i32, align 4
  %4 = alloca i32, align 4
  %5 = alloca i32, align 4
  %6 = alloca i32, align 4
  %7 = alloca i32, align 4
  %8 = alloca i32, align 4
  store i32 0, i32* %1, align 4
  store i32 0, i32* %8, align 4
  %9 = call i32 (i8*, ...) @__isoc99_scanf(i8* getelementptr inbounds ([3 x i8], [3 x i8]* @.str, i64 0, i64 0), i32* %2)
  store i32 3, i32* %3, align 4
  br label %10

10:                                               ; preds = %72, %0
  %11 = load i32, i32* %3, align 4
  %12 = load i32, i32* %2, align 4
  %13 = icmp sle i32 %11, %12
  br i1 %13, label %14, label %75

14:                                               ; preds = %10
  store i32 2, i32* %4, align 4
  br label %15

15:                                               ; preds = %68, %14
  %16 = load i32, i32* %4, align 4
  %17 = load i32, i32* %3, align 4
  %18 = icmp sle i32 %16, %17
  br i1 %18, label %19, label %71

19:                                               ; preds = %15
  %20 = load i32, i32* %4, align 4
  %21 = load i32, i32* %3, align 4
  %22 = icmp eq i32 %20, %21
  br i1 %22, label %23, label %60

23:                                               ; preds = %19
  %24 = load i32, i32* %3, align 4
  store i32 %24, i32* %6, align 4
  %25 = load i32, i32* %6, align 4
  %26 = add nsw i32 %25, 2
  %27 = load i32, i32* %2, align 4
  %28 = icmp sgt i32 %26, %27
  br i1 %28, label %29, label %30

29:                                               ; preds = %23
  br label %71

30:                                               ; preds = %23
  store i32 2, i32* %7, align 4
  br label %31

31:                                               ; preds = %56, %30
  %32 = load i32, i32* %7, align 4
  %33 = load i32, i32* %6, align 4
  %34 = add nsw i32 %33, 2
  %35 = icmp sle i32 %32, %34
  br i1 %35, label %36, label %59

36:                                               ; preds = %31
  %37 = load i32, i32* %7, align 4
  %38 = load i32, i32* %6, align 4
  %39 = add nsw i32 %38, 2
  %40 = icmp eq i32 %37, %39
  br i1 %40, label %41, label %47

41:                                               ; preds = %36
  %42 = load i32, i32* %6, align 4
  %43 = add nsw i32 %42, 2
  store i32 %43, i32* %5, align 4
  %44 = load i32, i32* %6, align 4
  %45 = load i32, i32* %5, align 4
  %46 = call i32 (i8*, ...) @printf(i8* getelementptr inbounds ([7 x i8], [7 x i8]* @.str.1, i64 0, i64 0), i32 %44, i32 %45)
  store i32 1, i32* %8, align 4
  br label %55

47:                                               ; preds = %36
  %48 = load i32, i32* %6, align 4
  %49 = add nsw i32 %48, 2
  %50 = load i32, i32* %7, align 4
  %51 = srem i32 %49, %50
  %52 = icmp eq i32 %51, 0
  br i1 %52, label %53, label %54

53:                                               ; preds = %47
  br label %59

54:                                               ; preds = %47
  br label %55

55:                                               ; preds = %54, %41
  br label %56

56:                                               ; preds = %55
  %57 = load i32, i32* %7, align 4
  %58 = add nsw i32 %57, 1
  store i32 %58, i32* %7, align 4
  br label %31

59:                                               ; preds = %53, %31
  br label %67

60:                                               ; preds = %19
  %61 = load i32, i32* %3, align 4
  %62 = load i32, i32* %4, align 4
  %63 = srem i32 %61, %62
  %64 = icmp eq i32 %63, 0
  br i1 %64, label %65, label %66

65:                                               ; preds = %60
  br label %71

66:                                               ; preds = %60
  br label %67

67:                                               ; preds = %66, %59
  br label %68

68:                                               ; preds = %67
  %69 = load i32, i32* %4, align 4
  %70 = add nsw i32 %69, 1
  store i32 %70, i32* %4, align 4
  br label %15

71:                                               ; preds = %65, %29, %15
  br label %72

72:                                               ; preds = %71
  %73 = load i32, i32* %3, align 4
  %74 = add nsw i32 %73, 1
  store i32 %74, i32* %3, align 4
  br label %10

75:                                               ; preds = %10
  %76 = load i32, i32* %8, align 4
  %77 = icmp eq i32 %76, 0
  br i1 %77, label %78, label %80

78:                                               ; preds = %75
  %79 = call i32 (i8*, ...) @printf(i8* getelementptr inbounds ([6 x i8], [6 x i8]* @.str.2, i64 0, i64 0))
  br label %80

80:                                               ; preds = %78, %75
  ret i32 0
}

declare dso_local i32 @__isoc99_scanf(i8*, ...) #1

declare dso_local i32 @printf(i8*, ...) #1


!llvm.module.flags = !{!0}
!llvm.ident = !{!1}

!0 = !{i32 1, !"wchar_size", i32 4}
!1 = !{!"clang version 10.0.0-4ubuntu1 "}
